target datalayout = "e-m:e-p270:32:32-p271:32:32-p272:64:64-i64:64-i128:128-f80:128-n8:16:32:64-S128"
target triple = "x86_64-pc-linux-gnu"

%struct.strbuf = type { i64, i64, ptr }
%struct.helper_data = type { ptr, ptr, ptr, i16, ptr, ptr, %struct.refspec, %struct.git_transport_options }
%struct.refspec = type { ptr, i32, i32, i32 }
%struct.git_transport_options = type { i16, i32, ptr, ptr, ptr, ptr, ptr, %struct.list_objects_filter_options, ptr, ptr }
%struct.list_objects_filter_options = type { %struct.strbuf, i32, i8, ptr, i64, i64, i32, i64, i64, ptr }
%struct.child_process = type { %struct.strvec, %struct.strvec, i32, i32, i64, ptr, ptr, i32, i32, i32, ptr, i16, ptr }
%struct.strvec = type { ptr, i64, i64 }

@debug = internal global i32 0, align 4
@strbuf_slopbuf = external global [0 x i8], align 1
@.str.13 = private unnamed_addr constant [19 x i8] c"transport-helper.c\00", align 1
@stderr = external global ptr, align 8
@.str.38 = private unnamed_addr constant [28 x i8] c"Debug: Remote helper: -> %s\00", align 1
@.str.39 = private unnamed_addr constant [34 x i8] c"Debug: Remote helper: Waiting...\0A\00", align 1
@.str.40 = private unnamed_addr constant [28 x i8] c"Debug: Remote helper quit.\0A\00", align 1
@.str.41 = private unnamed_addr constant [29 x i8] c"Debug: Remote helper: <- %s\0A\00", align 1
@.str.42 = private unnamed_addr constant [11 x i8] c"./strbuf.h\00", align 1
@.str.43 = private unnamed_addr constant [30 x i8] c"strbuf_setlen() beyond buffer\00", align 1
@.str.56 = private unnamed_addr constant [3 x i8] c"ok\00", align 1
@.str.57 = private unnamed_addr constant [6 x i8] c"error\00", align 1
@.str.58 = private unnamed_addr constant [12 x i8] c"unsupported\00", align 1
@.str.59 = private unnamed_addr constant [27 x i8] c"%s unexpectedly said: '%s'\00", align 1
@.str.60 = private unnamed_addr constant [35 x i8] c"full write to remote helper failed\00", align 1

; Function Attrs: inlinehint nounwind uwtable
define internal void @strbuf_setlen(ptr noundef %0, i64 noundef %1) #6 {
  %3 = alloca ptr, align 8
  %4 = alloca i64, align 8
  store ptr %0, ptr %3, align 8, !tbaa !114
  store i64 %1, ptr %4, align 8, !tbaa !62
  %5 = load i64, ptr %4, align 8, !tbaa !62
  %6 = load ptr, ptr %3, align 8, !tbaa !114
  %7 = getelementptr inbounds nuw %struct.strbuf, ptr %6, i32 0, i32 0
  %8 = load i64, ptr %7, align 8, !tbaa !120
  %9 = icmp ne i64 %8, 0
  br i1 %9, label %10, label %15

10:                                               ; preds = %2
  %11 = load ptr, ptr %3, align 8, !tbaa !114
  %12 = getelementptr inbounds nuw %struct.strbuf, ptr %11, i32 0, i32 0
  %13 = load i64, ptr %12, align 8, !tbaa !120
  %14 = sub i64 %13, 1
  br label %16

15:                                               ; preds = %2
  br label %16

16:                                               ; preds = %15, %10
  %17 = phi i64 [ %14, %10 ], [ 0, %15 ]
  %18 = icmp ugt i64 %5, %17
  br i1 %18, label %19, label %20

19:                                               ; preds = %16
  call void (ptr, i32, ptr, ...) @BUG_fl(ptr noundef @.str.42, i32 noundef 167, ptr noundef @.str.43) #13
  unreachable

20:                                               ; preds = %16
  %21 = load i64, ptr %4, align 8, !tbaa !62
  %22 = load ptr, ptr %3, align 8, !tbaa !114
  %23 = getelementptr inbounds nuw %struct.strbuf, ptr %22, i32 0, i32 1
  store i64 %21, ptr %23, align 8, !tbaa !116
  %24 = load ptr, ptr %3, align 8, !tbaa !114
  %25 = getelementptr inbounds nuw %struct.strbuf, ptr %24, i32 0, i32 2
  %26 = load ptr, ptr %25, align 8, !tbaa !105
  %27 = icmp ne ptr %26, @strbuf_slopbuf
  br i1 %27, label %28, label %34

28:                                               ; preds = %20
  %29 = load ptr, ptr %3, align 8, !tbaa !114
  %30 = getelementptr inbounds nuw %struct.strbuf, ptr %29, i32 0, i32 2
  %31 = load ptr, ptr %30, align 8, !tbaa !105
  %32 = load i64, ptr %4, align 8, !tbaa !62
  %33 = getelementptr inbounds nuw i8, ptr %31, i64 %32
  store i8 0, ptr %33, align 1, !tbaa !106
  br label %35

34:                                               ; preds = %20
  br label %35

35:                                               ; preds = %34, %28
  ret void
}

; Function Attrs: nounwind uwtable
define internal i32 @recvline_fh(ptr noundef %0, ptr noundef %1) #0 {
  %3 = alloca i32, align 4
  %4 = alloca ptr, align 8
  %5 = alloca ptr, align 8
  store ptr %0, ptr %4, align 8, !tbaa !81
  store ptr %1, ptr %5, align 8, !tbaa !114
  %6 = load ptr, ptr %5, align 8, !tbaa !114
  call void @strbuf_setlen(ptr noundef %6, i64 noundef 0)
  %7 = load i32, ptr @debug, align 4, !tbaa !29
  %8 = icmp ne i32 %7, 0
  br i1 %8, label %9, label %12

9:                                                ; preds = %2
  %10 = load ptr, ptr @stderr, align 8, !tbaa !81
  %11 = call i32 (ptr, ptr, ...) @fprintf(ptr noundef %10, ptr noundef @.str.39) #12
  br label %12

12:                                               ; preds = %9, %2
  %13 = load ptr, ptr %5, align 8, !tbaa !114
  %14 = load ptr, ptr %4, align 8, !tbaa !81
  %15 = call i32 @strbuf_getline(ptr noundef %13, ptr noundef %14)
  %16 = icmp eq i32 %15, -1
  br i1 %16, label %17, label %24

17:                                               ; preds = %12
  %18 = load i32, ptr @debug, align 4, !tbaa !29
  %19 = icmp ne i32 %18, 0
  br i1 %19, label %20, label %23

20:                                               ; preds = %17
  %21 = load ptr, ptr @stderr, align 8, !tbaa !81
  %22 = call i32 (ptr, ptr, ...) @fprintf(ptr noundef %21, ptr noundef @.str.40) #12
  br label %23

23:                                               ; preds = %20, %17
  store i32 1, ptr %3, align 4
  br label %34

24:                                               ; preds = %12
  %25 = load i32, ptr @debug, align 4, !tbaa !29
  %26 = icmp ne i32 %25, 0
  br i1 %26, label %27, label %33

27:                                               ; preds = %24
  %28 = load ptr, ptr @stderr, align 8, !tbaa !81
  %29 = load ptr, ptr %5, align 8, !tbaa !114
  %30 = getelementptr inbounds nuw %struct.strbuf, ptr %29, i32 0, i32 2
  %31 = load ptr, ptr %30, align 8, !tbaa !105
  %32 = call i32 (ptr, ptr, ...) @fprintf(ptr noundef %28, ptr noundef @.str.41, ptr noundef %31) #12
  br label %33

33:                                               ; preds = %27, %24
  store i32 0, ptr %3, align 4
  br label %34

34:                                               ; preds = %33, %23
  %35 = load i32, ptr %3, align 4
  ret i32 %35
}

; Function Attrs: nounwind uwtable
define internal i32 @recvline(ptr noundef %0, ptr noundef %1) #0 {
  %3 = alloca ptr, align 8
  %4 = alloca ptr, align 8
  store ptr %0, ptr %3, align 8, !tbaa !11
  store ptr %1, ptr %4, align 8, !tbaa !114
  %5 = load ptr, ptr %3, align 8, !tbaa !11
  %6 = getelementptr inbounds nuw %struct.helper_data, ptr %5, i32 0, i32 2
  %7 = load ptr, ptr %6, align 8, !tbaa !104
  %8 = load ptr, ptr %4, align 8, !tbaa !114
  %9 = call i32 @recvline_fh(ptr noundef %7, ptr noundef %8)
  ret i32 %9
}

; Function Attrs: nounwind uwtable
define internal void @sendline(ptr noundef %0, ptr noundef %1) #0 {
  %3 = alloca ptr, align 8
  %4 = alloca ptr, align 8
  store ptr %0, ptr %3, align 8, !tbaa !11
  store ptr %1, ptr %4, align 8, !tbaa !114
  %5 = load i32, ptr @debug, align 4, !tbaa !29
  %6 = icmp ne i32 %5, 0
  br i1 %6, label %7, label %13

7:                                                ; preds = %2
  %8 = load ptr, ptr @stderr, align 8, !tbaa !81
  %9 = load ptr, ptr %4, align 8, !tbaa !114
  %10 = getelementptr inbounds nuw %struct.strbuf, ptr %9, i32 0, i32 2
  %11 = load ptr, ptr %10, align 8, !tbaa !105
  %12 = call i32 (ptr, ptr, ...) @fprintf(ptr noundef %8, ptr noundef @.str.38, ptr noundef %11) #12
  br label %13

13:                                               ; preds = %7, %2
  %14 = load ptr, ptr %3, align 8, !tbaa !11
  %15 = getelementptr inbounds nuw %struct.helper_data, ptr %14, i32 0, i32 1
  %16 = load ptr, ptr %15, align 8, !tbaa !84
  %17 = getelementptr inbounds nuw %struct.child_process, ptr %16, i32 0, i32 7
  %18 = load i32, ptr %17, align 8, !tbaa !89
  %19 = load ptr, ptr %4, align 8, !tbaa !114
  %20 = getelementptr inbounds nuw %struct.strbuf, ptr %19, i32 0, i32 2
  %21 = load ptr, ptr %20, align 8, !tbaa !105
  %22 = load ptr, ptr %4, align 8, !tbaa !114
  %23 = getelementptr inbounds nuw %struct.strbuf, ptr %22, i32 0, i32 1
  %24 = load i64, ptr %23, align 8, !tbaa !116
  %25 = call i64 @write_in_full(i32 noundef %18, ptr noundef %21, i64 noundef %24)
  %26 = icmp slt i64 %25, 0
  br i1 %26, label %27, label %29

27:                                               ; preds = %13
  %28 = call ptr @_(ptr noundef @.str.60)
  call void (ptr, ...) @die_errno(ptr noundef %28) #13
  unreachable

29:                                               ; preds = %13
  ret void
}

; Function Attrs: nounwind uwtable
define internal i32 @strbuf_set_helper_option(ptr noundef %0, ptr noundef %1) #0 {
  %3 = alloca ptr, align 8
  %4 = alloca ptr, align 8
  %5 = alloca i32, align 4
  store ptr %0, ptr %3, align 8, !tbaa !11
  store ptr %1, ptr %4, align 8, !tbaa !114
  call void @llvm.lifetime.start.p0(i64 4, ptr %5) #12
  %6 = load ptr, ptr %3, align 8, !tbaa !11
  %7 = load ptr, ptr %4, align 8, !tbaa !114
  call void @sendline(ptr noundef %6, ptr noundef %7)
  %8 = load ptr, ptr %3, align 8, !tbaa !11
  %9 = load ptr, ptr %4, align 8, !tbaa !114
  %10 = call i32 @recvline(ptr noundef %8, ptr noundef %9)
  %11 = icmp ne i32 %10, 0
  br i1 %11, label %12, label %14

12:                                               ; preds = %2
  %13 = call i32 @common_exit(ptr noundef @.str.13, i32 noundef 296, i32 noundef 128)
  call void @exit(i32 noundef %13) #16
  unreachable

14:                                               ; preds = %2
  %15 = load ptr, ptr %4, align 8, !tbaa !114
  %16 = getelementptr inbounds nuw %struct.strbuf, ptr %15, i32 0, i32 2
  %17 = load ptr, ptr %16, align 8, !tbaa !105
  %18 = call i32 @strcmp(ptr noundef %17, ptr noundef @.str.56) #14
  %19 = icmp ne i32 %18, 0
  br i1 %19, label %21, label %20

20:                                               ; preds = %14
  store i32 0, ptr %5, align 4, !tbaa !29
  br label %45

21:                                               ; preds = %14
  %22 = load ptr, ptr %4, align 8, !tbaa !114
  %23 = getelementptr inbounds nuw %struct.strbuf, ptr %22, i32 0, i32 2
  %24 = load ptr, ptr %23, align 8, !tbaa !105
  %25 = call i32 @starts_with(ptr noundef %24, ptr noundef @.str.57)
  %26 = icmp ne i32 %25, 0
  br i1 %26, label %27, label %28

27:                                               ; preds = %21
  store i32 -1, ptr %5, align 4, !tbaa !29
  br label %44

28:                                               ; preds = %21
  %29 = load ptr, ptr %4, align 8, !tbaa !114
  %30 = getelementptr inbounds nuw %struct.strbuf, ptr %29, i32 0, i32 2
  %31 = load ptr, ptr %30, align 8, !tbaa !105
  %32 = call i32 @strcmp(ptr noundef %31, ptr noundef @.str.58) #14
  %33 = icmp ne i32 %32, 0
  br i1 %33, label %35, label %34

34:                                               ; preds = %28
  store i32 1, ptr %5, align 4, !tbaa !29
  br label %43

35:                                               ; preds = %28
  %36 = call ptr @_(ptr noundef @.str.59)
  %37 = load ptr, ptr %3, align 8, !tbaa !11
  %38 = getelementptr inbounds nuw %struct.helper_data, ptr %37, i32 0, i32 0
  %39 = load ptr, ptr %38, align 8, !tbaa !13
  %40 = load ptr, ptr %4, align 8, !tbaa !114
  %41 = getelementptr inbounds nuw %struct.strbuf, ptr %40, i32 0, i32 2
  %42 = load ptr, ptr %41, align 8, !tbaa !105
  call void (ptr, ...) @warning(ptr noundef %36, ptr noundef %39, ptr noundef %42)
  store i32 1, ptr %5, align 4, !tbaa !29
  br label %43

43:                                               ; preds = %35, %34
  br label %44

44:                                               ; preds = %43, %27
  br label %45

45:                                               ; preds = %44, %20
  %46 = load i32, ptr %5, align 4, !tbaa !29
  call void @llvm.lifetime.end.p0(i64 4, ptr %5) #12
  ret i32 %46
}