; Function Attrs: nounwind uwtable
define internal fastcc range(i32 -1, 2) i32 @strbuf_set_helper_option(ptr noundef readonly captures(none) %0, ptr noundef nonnull %1) unnamed_addr #0 {
  %.b.i = load i1, ptr @debug, align 4
  br i1 %.b.i, label %3, label %8

3:                                                ; preds = %2
  %4 = load ptr, ptr @stderr, align 8, !tbaa !82
  %5 = getelementptr inbounds nuw i8, ptr %1, i64 16
  %6 = load ptr, ptr %5, align 8, !tbaa !65
  %7 = tail call i32 (ptr, ptr, ...) @fprintf(ptr noundef %4, ptr noundef nonnull @.str.38, ptr noundef %6) #22
  br label %8

8:                                                ; preds = %3, %2
  %9 = getelementptr inbounds nuw i8, ptr %0, i64 8
  %10 = load ptr, ptr %9, align 8, !tbaa !71
  %11 = getelementptr inbounds nuw i8, ptr %10, i64 80
  %12 = load i32, ptr %11, align 8, !tbaa !83
  %13 = getelementptr inbounds nuw i8, ptr %1, i64 16
  %14 = load ptr, ptr %13, align 8, !tbaa !65
  %15 = getelementptr inbounds nuw i8, ptr %1, i64 8
  %16 = load i64, ptr %15, align 8, !tbaa !64
  %17 = tail call i64 @write_in_full(i32 noundef %12, ptr noundef %14, i64 noundef %16) #19
  %18 = icmp slt i64 %17, 0
  br i1 %18, label %19, label %sendline.exit

19:                                               ; preds = %8
  %20 = tail call fastcc ptr @_(ptr noundef nonnull @.str.60)
  tail call void (ptr, ...) @die_errno(ptr noundef %20) #20
  unreachable

sendline.exit:                                    ; preds = %8
  %21 = getelementptr i8, ptr %0, i64 16
  %.val = load ptr, ptr %21, align 8, !tbaa !72
  store i64 0, ptr %15, align 8, !tbaa !64
  %22 = load ptr, ptr %13, align 8, !tbaa !65
  %.not9.i.i.i = icmp eq ptr %22, @strbuf_slopbuf
  br i1 %.not9.i.i.i, label %strbuf_setlen.exit.i.i, label %23

23:                                               ; preds = %sendline.exit
  store i8 0, ptr %22, align 1, !tbaa !66
  br label %strbuf_setlen.exit.i.i

strbuf_setlen.exit.i.i:                           ; preds = %23, %sendline.exit
  %.b5.i.i = load i1, ptr @debug, align 4
  br i1 %.b5.i.i, label %24, label %27

24:                                               ; preds = %strbuf_setlen.exit.i.i
  %25 = load ptr, ptr @stderr, align 8, !tbaa !82
  %26 = tail call i64 @fwrite(ptr nonnull @.str.39, i64 33, i64 1, ptr %25) #23
  br label %27

27:                                               ; preds = %24, %strbuf_setlen.exit.i.i
  %28 = tail call i32 @strbuf_getline(ptr noundef nonnull %1, ptr noundef %.val) #19
  %29 = icmp eq i32 %28, -1
  %.b4.i.i = load i1, ptr @debug, align 4
  br i1 %29, label %30, label %34

30:                                               ; preds = %27
  br i1 %.b4.i.i, label %31, label %recvline.exit

31:                                               ; preds = %30
  %32 = load ptr, ptr @stderr, align 8, !tbaa !82
  %33 = tail call i64 @fwrite(ptr nonnull @.str.40, i64 27, i64 1, ptr %32) #23
  br label %recvline.exit

34:                                               ; preds = %27
  br i1 %.b4.i.i, label %35, label %sub_0

35:                                               ; preds = %34
  %36 = load ptr, ptr @stderr, align 8, !tbaa !82
  %37 = load ptr, ptr %13, align 8, !tbaa !65
  %38 = tail call i32 (ptr, ptr, ...) @fprintf(ptr noundef %36, ptr noundef nonnull @.str.41, ptr noundef %37) #22
  br label %sub_0

recvline.exit:                                    ; preds = %31, %30
  %39 = tail call i32 @common_exit(ptr noundef nonnull @.str.13, i32 noundef 296, i32 noundef 128) #19
  tail call void @exit(i32 noundef %39) #20
  unreachable

sub_0:                                            ; preds = %35, %34
  %40 = load ptr, ptr %13, align 8, !tbaa !65
  %41 = load i8, ptr %40, align 1
  %.not = icmp eq i8 %41, 111
  br i1 %.not, label %sub_1, label %.tail.thread

sub_1:                                            ; preds = %sub_0
  %42 = getelementptr inbounds nuw i8, ptr %40, i64 1
  %43 = load i8, ptr %42, align 1
  %.not14 = icmp eq i8 %43, 107
  br i1 %.not14, label %.tail, label %.tail.thread

.tail:                                            ; preds = %sub_1
  %44 = getelementptr inbounds nuw i8, ptr %40, i64 2
  %45 = load i8, ptr %44, align 1
  %46 = icmp eq i8 %45, 0
  br i1 %46, label %57, label %.tail.thread

.tail.thread:                                     ; preds = %sub_1, %sub_0, %.tail
  %47 = tail call i32 @starts_with(ptr noundef nonnull %40, ptr noundef nonnull @.str.57) #19
  %.not10 = icmp eq i32 %47, 0
  br i1 %.not10, label %48, label %57

48:                                               ; preds = %.tail.thread
  %49 = load ptr, ptr %13, align 8, !tbaa !65
  %50 = tail call i32 @strcmp(ptr noundef nonnull dereferenceable(1) %49, ptr noundef nonnull dereferenceable(12) @.str.58) #21
  %.not11 = icmp eq i32 %50, 0
  br i1 %.not11, label %57, label %51

51:                                               ; preds = %48
  %52 = load i32, ptr @git_gettext_enabled, align 4, !tbaa !55
  %.not4.i = icmp eq i32 %52, 0
  br i1 %.not4.i, label %_.exit, label %53

53:                                               ; preds = %51
  %54 = tail call ptr @dcgettext(ptr noundef null, ptr noundef nonnull @.str.59, i32 noundef 5) #19
  %.pre = load ptr, ptr %13, align 8, !tbaa !65
  br label %_.exit

_.exit:                                           ; preds = %51, %53
  %55 = phi ptr [ %.pre, %53 ], [ %49, %51 ]
  %.0.i = phi ptr [ %54, %53 ], [ @.str.59, %51 ]
  %56 = load ptr, ptr %0, align 8, !tbaa !4
  tail call void (ptr, ...) @warning(ptr noundef %.0.i, ptr noundef %56, ptr noundef %55) #19
  br label %57

57:                                               ; preds = %48, %.tail.thread, %.tail, %_.exit
  %.0 = phi i32 [ 1, %_.exit ], [ 0, %.tail ], [ -1, %.tail.thread ], [ 1, %48 ]
  ret i32 %.0
}